(dp0
Vdirection
p1
VNorth Bound
p2
sVrun
p3
VP200
p4
sVrevenue
p5
Vtrue
p6
sVcolor
p7
V#cc3300
p8
sVpattern
p9
V3932
p10
sVroute
p11
V22
p12
sVlongitude
p13
V-87.62948191165924
p14
sVoperator
p15
V39560
p16
sVpatternDirection
p17
VNorth Bound
p18
sVlatitude
p19
V41.880481123924255
p20
sVfinalStop
p21
VPaulina & Howard Terminal
p22
sVid
p23
V1485
p24
s.(dp0
Vdirection
p1
VNorth Bound
p2
sVrun
p3
VP216
p4
sVrevenue
p5
Vtrue
p6
sVcolor
p7
V#cc3300
p8
sVpattern
p9
V3932
p10
sVroute
p11
V22
p12
sVlongitude
p13
V-87.6730209876751
p14
sVoperator
p15
V44779
p16
sVpatternDirection
p17
VNorth Bound
p18
sVlatitude
p19
V42.01851969751819
p20
sVfinalStop
p21
VPaulina & Howard Terminal
p22
sVid
p23
V1629
p24
s.(dp0
Vdirection
p1
VNorth Bound
p2
sVrun
p3
VP214
p4
sVrevenue
p5
Vtrue
p6
sVcolor
p7
V#cc3300
p8
sVpattern
p9
V3932
p10
sVroute
p11
V22
p12
sVlongitude
p13
V-87.66610128229314
p14
sVoperator
p15
V42849
p16
sVpatternDirection
p17
VNorth Bound
p18
sVlatitude
p19
V41.962393500588156
p20
sVfinalStop
p21
VPaulina & Howard Terminal
p22
sVid
p23
V1489
p24
s.(dp0
Vdirection
p1
VNorth Bound
p2
sVrun
p3
VP215
p4
sVrevenue
p5
Vtrue
p6
sVcolor
p7
V#cc3300
p8
sVpattern
p9
V3932
p10
sVroute
p11
V22
p12
sVlongitude
p13
V-87.6395345910803
p14
sVoperator
p15
V42991
p16
sVpatternDirection
p17
VNorth Bound
p18
sVlatitude
p19
V41.92381583870231
p20
sVfinalStop
p21
VPaulina & Howard Terminal
p22
sVid
p23
V1533
p24
s.(dp0
Vdirection
p1
VNorth Bound
p2
sVrun
p3
VP194
p4
sVrevenue
p5
Vtrue
p6
sVcolor
p7
V#cc3300
p8
sVpattern
p9
V3932
p10
sVroute
p11
V22
p12
sVlongitude
p13
V-87.66976165771484
p14
sVoperator
p15
V38669
p16
sVpatternDirection
p17
VNorth Bound
p18
sVlatitude
p19
V41.989253234863284
p20
sVfinalStop
p21
VPaulina & Howard Terminal
p22
sVid
p23
V1779
p24
s.(dp0
Vdirection
p1
VNorth Bound
p2
sVrun
p3
VP197
p4
sVrevenue
p5
Vtrue
p6
sVcolor
p7
V#cc3300
p8
sVpattern
p9
V3932
p10
sVroute
p11
V22
p12
sVlongitude
p13
V-87.62985568576389
p14
sVoperator
p15
V40985
p16
sVpatternDirection
p17
VNorth Bound
p18
sVlatitude
p19
V41.892801920572914
p20
sVfinalStop
p21
VPaulina & Howard Terminal
p22
sVid
p23
V1595
p24
s.(dp0
Vdirection
p1
VNorth Bound
p2
sVrun
p3
VP246
p4
sVrevenue
p5
Vtrue
p6
sVcolor
p7
V#cc3300
p8
sVpattern
p9
V3932
p10
sVroute
p11
V22
p12
sVlongitude
p13
V-87.63357444862267
p14
sVoperator
p15
V44641
p16
sVpatternDirection
p17
VNorth Bound
p18
sVlatitude
p19
V41.91437446296989
p20
sVfinalStop
p21
VPaulina & Howard Terminal
p22
sVid
p23
V1567
p24
s.(dp0
Vdirection
p1
VNorth Bound
p2
sVrun
p3
VP213
p4
sVrevenue
p5
Vtrue
p6
sVcolor
p7
V#cc3300
p8
sVpattern
p9
V3932
p10
sVroute
p11
V22
p12
sVlongitude
p13
V-87.66956552358774
p14
sVoperator
p15
V20422
p16
sVpatternDirection
p17
VNorth Bound
p18
sVlatitude
p19
V41.98753767747145
p20
sVfinalStop
p21
VPaulina & Howard Terminal
p22
sVid
p23
V1795
p24
s.(dp0
Vdirection
p1
VNorth Bound
p2
sVrun
p3
VP262
p4
sVrevenue
p5
Vtrue
p6
sVcolor
p7
V#cc3300
p8
sVpattern
p9
V3932
p10
sVroute
p11
V22
p12
sVlongitude
p13
V-87.64240264892578
p14
sVoperator
p15
V49334
p16
sVpatternDirection
p17
VNorth Bound
p18
sVlatitude
p19
V41.92852973937988
p20
sVfinalStop
p21
VPaulina & Howard Terminal
p22
sVid
p23
V1543
p24
s.(dp0
Vdirection
p1
VNorth Bound
p2
sVrun
p3
VP196
p4
sVrevenue
p5
Vtrue
p6
sVcolor
p7
V#cc3300
p8
sVpattern
p9
V3932
p10
sVroute
p11
V22
p12
sVlongitude
p13
V-87.66706085205078
p14
sVoperator
p15
V2080
p16
sVpatternDirection
p17
VNorth Bound
p18
sVlatitude
p19
V41.96697834559849
p20
sVfinalStop
p21
VPaulina & Howard Terminal
p22
sVid
p23
V1315
p24
s.(dp0
Vdirection
p1
VNorth Bound
p2
sVrun
p3
VP263
p4
sVrevenue
p5
Vtrue
p6
sVcolor
p7
V#cc3300
p8
sVpattern
p9
V3932
p10
sVroute
p11
V22
p12
sVlongitude
p13
V-87.66953517966074
p14
sVoperator
p15
V45392
p16
sVpatternDirection
p17
VNorth Bound
p18
sVlatitude
p19
V41.98728592755043
p20
sVfinalStop
p21
VPaulina & Howard Terminal
p22
sVid
p23
V6069
p24
s.(dp0
Vdirection
p1
VNorth Bound
p2
sVrun
p3
VP198
p4
sVrevenue
p5
Vtrue
p6
sVcolor
p7
V#cc3300
p8
sVpattern
p9
V3932
p10
sVroute
p11
V22
p12
sVlongitude
p13
V-87.64342498779297
p14
sVoperator
p15
V42349
p16
sVpatternDirection
p17
VNorth Bound
p18
sVlatitude
p19
V41.92987823486328
p20
sVfinalStop
p21
VPaulina & Howard Terminal
p22
sVid
p23
V1891
p24
s.(dp0
Vdirection
p1
VNorth Bound
p2
sVrun
p3
VP193
p4
sVrevenue
p5
Vtrue
p6
sVcolor
p7
V#cc3300
p8
sVpattern
p9
V3932
p10
sVroute
p11
V22
p12
sVlongitude
p13
V-87.6723536365437
p14
sVoperator
p15
V39431
p16
sVpatternDirection
p17
VNorth Bound
p18
sVlatitude
p19
V42.003393713033425
p20
sVfinalStop
p21
VPaulina & Howard Terminal
p22
sVid
p23
V1569
p24
s.(dp0
Vdirection
p1
VNorth Bound
p2
sVrun
p3
VP398
p4
sVrevenue
p5
Vtrue
p6
sVcolor
p7
V#cc3300
p8
sVpattern
p9
V3932
p10
sVroute
p11
V22
p12
sVlongitude
p13
V-87.63128570556641
p14
sVoperator
p15
V36291
p16
sVpatternDirection
p17
VNorth Bound
p18
sVlatitude
p19
V41.90174682617187
p20
sVfinalStop
p21
VPaulina & Howard Terminal
p22
sVid
p23
V1617
p24
s.(dp0
Vdirection
p1
VNorth Bound
p2
sVrun
p3
VP260
p4
sVrevenue
p5
Vtrue
p6
sVcolor
p7
V#cc3300
p8
sVpattern
p9
V3932
p10
sVroute
p11
V22
p12
sVlongitude
p13
V-87.66838073730469
p14
sVoperator
p15
V44786
p16
sVpatternDirection
p17
VNorth Bound
p18
sVlatitude
p19
V41.976410124037
p20
sVfinalStop
p21
VPaulina & Howard Terminal
p22
sVid
p23
V1821
p24
s.(dp0
Vdirection
p1
VNorth Bound
p2
sVrun
p3
VP261
p4
sVrevenue
p5
Vtrue
p6
sVcolor
p7
V#cc3300
p8
sVpattern
p9
V3932
p10
sVroute
p11
V22
p12
sVlongitude
p13
V-87.66764088166066
p14
sVoperator
p15
V45405
p16
sVpatternDirection
p17
VNorth Bound
p18
sVlatitude
p19
V41.96970504369491
p20
sVfinalStop
p21
VPaulina & Howard Terminal
p22
sVid
p23
V1499
p24
s.